; Function Attrs: mustprogress nounwind uwtable
define hidden void @_ZN3euf8ackermanD2Ev(ptr nocapture noundef nonnull align 8 dereferenceable(68) %this) unnamed_addr #4 align 2 personality ptr @__gxx_personality_v0 {
entry:
  invoke void @_ZN3euf8ackerman5resetEv(ptr noundef nonnull align 8 dereferenceable(68) %this)
          to label %invoke.cont unwind label %terminate.lpad

invoke.cont:                                      ; preds = %entry
  %m_tmp_inference = getelementptr inbounds i8, ptr %this, i64 48
  %0 = load ptr, ptr %m_tmp_inference, align 8
  %cmp.i = icmp eq ptr %0, null
  br i1 %cmp.i, label %invoke.cont2, label %if.end.i

if.end.i:                                         ; preds = %invoke.cont
  invoke void @_ZN6memory10deallocateEPv(ptr noundef nonnull %0)
          to label %invoke.cont2 unwind label %terminate.lpad

invoke.cont2:                                     ; preds = %invoke.cont, %if.end.i
  %m_table = getelementptr inbounds i8, ptr %this, i64 16
  %1 = load ptr, ptr %m_table, align 8
  %cmp.i.i.i.i = icmp eq ptr %1, null
  br i1 %cmp.i.i.i.i, label %_ZN9hashtableIPN3euf8ackerman9inferenceENS1_14inference_hashENS1_12inference_eqEED2Ev.exit, label %for.cond.preheader.i.i.i.i

for.cond.preheader.i.i.i.i:                       ; preds = %invoke.cont2
  invoke void @_ZN6memory10deallocateEPv(ptr noundef nonnull %1)
          to label %_ZN9hashtableIPN3euf8ackerman9inferenceENS1_14inference_hashENS1_12inference_eqEED2Ev.exit unwind label %terminate.lpad.i.i

terminate.lpad.i.i:                               ; preds = %for.cond.preheader.i.i.i.i
  %2 = landingpad { ptr, i32 }
          catch ptr null
  %3 = extractvalue { ptr, i32 } %2, 0
  tail call void @__clang_call_terminate(ptr %3) #15
  unreachable

_ZN9hashtableIPN3euf8ackerman9inferenceENS1_14inference_hashENS1_12inference_eqEED2Ev.exit: ; preds = %invoke.cont2, %for.cond.preheader.i.i.i.i
  store ptr null, ptr %m_table, align 8
  ret void

terminate.lpad:                                   ; preds = %if.end.i, %entry
  %4 = landingpad { ptr, i32 }
          catch ptr null
  %5 = extractvalue { ptr, i32 } %4, 0
  tail call void @__clang_call_terminate(ptr %5) #15
  unreachable
}